---
triple:          'arm64-apple-darwin'
binary-path:     '/Users/jvmcpheron/Documents/Code/CS2/CS2_Lab8/main2'
relocations:
  - { offsetInCU: 0x4CE9, offset: 0x4CE9, size: 0x8, addend: 0x0, symName: '__ZNSt3__111__sift_downB7v160006INS_17_ClassicAlgPolicyERZ4mainE3$_0NS_11__wrap_iterIP8HeapDataEEEEvT1_OT0_NS_15iterator_traitsIS8_E15difference_typeES8_', symObjAddr: 0x25A0, symBinAddr: 0x10000448C, symSize: 0x2D4 }
  - { offsetInCU: 0x4DC8, offset: 0x4DC8, size: 0x8, addend: 0x0, symName: '__ZNSt3__111__sift_downB7v160006INS_17_ClassicAlgPolicyERZ4mainE3$_1NS_11__wrap_iterIP8HeapDataEEEEvT1_OT0_NS_15iterator_traitsIS8_E15difference_typeES8_', symObjAddr: 0x2A24, symBinAddr: 0x100004910, symSize: 0x2D4 }
  - { offsetInCU: 0x4E75, offset: 0x4E75, size: 0x8, addend: 0x0, symName: __ZNSt3__124__put_character_sequenceB7v160006IcNS_11char_traitsIcEEEERNS_13basic_ostreamIT_T0_EES7_PKS4_m, symObjAddr: 0x2D44, symBinAddr: 0x100004C30, symSize: 0x1EC }
  - { offsetInCU: 0x5CDD, offset: 0x5CDD, size: 0x8, addend: 0x0, symName: '__ZNSt3__111__sift_downB7v160006INS_17_ClassicAlgPolicyERZ4mainE3$_4NS_11__wrap_iterIP8HeapDataEEEEvT1_OT0_NS_15iterator_traitsIS8_E15difference_typeES8_', symObjAddr: 0x4C74, symBinAddr: 0x100006B60, symSize: 0x2D4 }
  - { offsetInCU: 0x5D8A, offset: 0x5D8A, size: 0x8, addend: 0x0, symName: '__ZNSt3__117__floyd_sift_downB7v160006INS_17_ClassicAlgPolicyERZ4mainE3$_5NS_11__wrap_iterIP8HeapDataEEEET1_S8_OT0_NS_15iterator_traitsIS8_E15difference_typeE', symObjAddr: 0x50C8, symBinAddr: 0x100006FB4, symSize: 0x14C }
  - { offsetInCU: 0x5E22, offset: 0x5E22, size: 0x8, addend: 0x0, symName: '__ZNSt3__117__floyd_sift_downB7v160006INS_17_ClassicAlgPolicyERZ4mainE3$_6NS_11__wrap_iterIP8HeapDataEEEET1_S8_OT0_NS_15iterator_traitsIS8_E15difference_typeE', symObjAddr: 0x561C, symBinAddr: 0x100007508, symSize: 0x14C }
  - { offsetInCU: 0x6BAE, offset: 0x6BAE, size: 0x8, addend: 0x0, symName: '__ZNSt3__19make_heapB7v160006INS_11__wrap_iterIP8HeapDataEEZ4mainE3$_0EEvT_S6_T0_', symObjAddr: 0x958, symBinAddr: 0x100002844, symSize: 0x40 }
  - { offsetInCU: 0x6C04, offset: 0x6C04, size: 0x8, addend: 0x0, symName: '__ZNSt3__19make_heapB7v160006INS_11__wrap_iterIP8HeapDataEEZ4mainE3$_1EEvT_S6_T0_', symObjAddr: 0x9F8, symBinAddr: 0x1000028E4, symSize: 0x40 }
  - { offsetInCU: 0x6C5A, offset: 0x6C5A, size: 0x8, addend: 0x0, symName: __ZNSt3__1lsB7v160006INS_11char_traitsIcEEEERNS_13basic_ostreamIcT_EES6_PKc, symObjAddr: 0xA38, symBinAddr: 0x100002924, symSize: 0x48 }
  - { offsetInCU: 0x6CA0, offset: 0x6CA0, size: 0x8, addend: 0x0, symName: __ZNSt3__1neB7v160006IP8HeapDataEEbRKNS_11__wrap_iterIT_EES7_, symObjAddr: 0xA80, symBinAddr: 0x10000296C, symSize: 0x34 }
  - { offsetInCU: 0x6CE3, offset: 0x6CE3, size: 0x8, addend: 0x0, symName: __ZNSt3__14endlB7v160006IcNS_11char_traitsIcEEEERNS_13basic_ostreamIT_T0_EES7_, symObjAddr: 0xB30, symBinAddr: 0x100002A1C, symSize: 0x58 }
  - { offsetInCU: 0x6D23, offset: 0x6D23, size: 0x8, addend: 0x0, symName: '__ZNSt3__19push_heapB7v160006INS_11__wrap_iterIP8HeapDataEEZ4mainE3$_2EEvT_S6_T0_', symObjAddr: 0xC20, symBinAddr: 0x100002B0C, symSize: 0x40 }
  - { offsetInCU: 0x6D79, offset: 0x6D79, size: 0x8, addend: 0x0, symName: '__ZNSt3__17is_heapB7v160006INS_11__wrap_iterIP8HeapDataEEZ4mainE3$_3EEbT_S6_T0_', symObjAddr: 0xC60, symBinAddr: 0x100002B4C, symSize: 0x60 }
  - { offsetInCU: 0x6DD3, offset: 0x6DD3, size: 0x8, addend: 0x0, symName: '__ZNSt3__19make_heapB7v160006INS_11__wrap_iterIP8HeapDataEEZ4mainE3$_4EEvT_S6_T0_', symObjAddr: 0xCC0, symBinAddr: 0x100002BAC, symSize: 0x40 }
  - { offsetInCU: 0x6E29, offset: 0x6E29, size: 0x8, addend: 0x0, symName: '__ZNSt3__18pop_heapB7v160006INS_11__wrap_iterIP8HeapDataEEZ4mainE3$_5EEvT_S6_T0_', symObjAddr: 0xD18, symBinAddr: 0x100002C04, symSize: 0x58 }
  - { offsetInCU: 0x6E8D, offset: 0x6E8D, size: 0x8, addend: 0x0, symName: '__ZNSt3__18pop_heapB7v160006INS_11__wrap_iterIP8HeapDataEEZ4mainE3$_6EEvT_S6_T0_', symObjAddr: 0xD9C, symBinAddr: 0x100002C88, symSize: 0x58 }
  - { offsetInCU: 0x6EF1, offset: 0x6EF1, size: 0x8, addend: 0x0, symName: __ZNSt3__1eqB7v160006IP8HeapDataEEbRKNS_11__wrap_iterIT_EES7_, symObjAddr: 0xE20, symBinAddr: 0x100002D0C, symSize: 0x48 }
  - { offsetInCU: 0x6F34, offset: 0x6F34, size: 0x8, addend: 0x0, symName: __ZNSt3__122__make_exception_guardB7v160006INS_6vectorI8HeapDataNS_9allocatorIS2_EEE16__destroy_vectorEEENS_28__exception_guard_exceptionsIT_EES8_, symObjAddr: 0xFC4, symBinAddr: 0x100002EB0, symSize: 0x40 }
  - { offsetInCU: 0x6F69, offset: 0x6F69, size: 0x8, addend: 0x0, symName: __ZNSt3__119__debug_db_insert_cB7v160006INS_6vectorI8HeapDataNS_9allocatorIS2_EEEEEEvPT_, symObjAddr: 0x1038, symBinAddr: 0x100002F24, symSize: 0x10 }
  - { offsetInCU: 0x6F9A, offset: 0x6F9A, size: 0x8, addend: 0x0, symName: __ZNSt3__18distanceB7v160006IP8HeapDataEENS_15iterator_traitsIT_E15difference_typeES4_S4_, symObjAddr: 0x1048, symBinAddr: 0x100002F34, symSize: 0x2C }
  - { offsetInCU: 0x6FDD, offset: 0x6FDD, size: 0x8, addend: 0x0, symName: __ZNSt3__110__distanceB7v160006IP8HeapDataEENS_15iterator_traitsIT_E15difference_typeES4_S4_NS_26random_access_iterator_tagE, symObjAddr: 0x1334, symBinAddr: 0x100003220, symSize: 0x28 }
  - { offsetInCU: 0x702A, offset: 0x702A, size: 0x8, addend: 0x0, symName: __ZNSt3__119__allocate_at_leastB7v160006INS_9allocatorI8HeapDataEEEENS_19__allocation_resultINS_16allocator_traitsIT_E7pointerEEERS6_m, symObjAddr: 0x13D8, symBinAddr: 0x1000032C4, symSize: 0x40 }
  - { offsetInCU: 0x706D, offset: 0x706D, size: 0x8, addend: 0x0, symName: __ZNSt3__13minB7v160006ImEERKT_S3_S3_, symObjAddr: 0x1514, symBinAddr: 0x100003400, symSize: 0x2C }
  - { offsetInCU: 0x72B1, offset: 0x72B1, size: 0x8, addend: 0x0, symName: __ZNSt3__13minB7v160006ImNS_6__lessImmEEEERKT_S5_S5_T0_, symObjAddr: 0x15AC, symBinAddr: 0x100003498, symSize: 0x54 }
  - { offsetInCU: 0x7346, offset: 0x7346, size: 0x8, addend: 0x0, symName: __ZNSt3__120__throw_length_errorB7v160006EPKc, symObjAddr: 0x1688, symBinAddr: 0x100003574, symSize: 0x64 }
  - { offsetInCU: 0x736E, offset: 0x736E, size: 0x8, addend: 0x0, symName: __ZNSt3__117__libcpp_allocateB7v160006Emm, symObjAddr: 0x17F8, symBinAddr: 0x1000036E4, symSize: 0x28 }
  - { offsetInCU: 0x73AB, offset: 0x73AB, size: 0x8, addend: 0x0, symName: __ZNSt3__121__libcpp_operator_newB7v160006IJmEEEPvDpT_, symObjAddr: 0x1820, symBinAddr: 0x10000370C, symSize: 0x24 }
  - { offsetInCU: 0x73E4, offset: 0x73E4, size: 0x8, addend: 0x0, symName: __ZNSt3__112__to_addressB7v160006I8HeapDataEEPT_S3_, symObjAddr: 0x193C, symBinAddr: 0x100003828, symSize: 0x14 }
  - { offsetInCU: 0x7419, offset: 0x7419, size: 0x8, addend: 0x0, symName: __ZNSt3__130__uninitialized_allocator_copyB7v160006INS_9allocatorI8HeapDataEEPS2_S4_S4_EET2_RT_T0_T1_S5_, symObjAddr: 0x19EC, symBinAddr: 0x1000038D8, symSize: 0xF4 }
  - { offsetInCU: 0x74B7, offset: 0x74B7, size: 0x8, addend: 0x0, symName: __ZNSt3__122__make_exception_guardB7v160006INS_29_AllocatorDestroyRangeReverseINS_9allocatorI8HeapDataEEPS3_EEEENS_28__exception_guard_exceptionsIT_EES8_, symObjAddr: 0x1B50, symBinAddr: 0x100003A3C, symSize: 0x4C }
  - { offsetInCU: 0x74ED, offset: 0x74ED, size: 0x8, addend: 0x0, symName: __ZNSt3__119__allocator_destroyB7v160006INS_9allocatorI8HeapDataEENS_16reverse_iteratorIPS2_EES6_EEvRT_T0_T1_, symObjAddr: 0x1DD8, symBinAddr: 0x100003CC4, symSize: 0x70 }
  - { offsetInCU: 0x7550, offset: 0x7550, size: 0x8, addend: 0x0, symName: __ZNSt3__1neB7v160006IP8HeapDataS2_EEbRKNS_16reverse_iteratorIT_EERKNS3_IT0_EE, symObjAddr: 0x1E7C, symBinAddr: 0x100003D68, symSize: 0x48 }
  - { offsetInCU: 0x759C, offset: 0x759C, size: 0x8, addend: 0x0, symName: __ZNSt3__112__to_addressB7v160006INS_16reverse_iteratorIP8HeapDataEEvEENS_5decayIDTclsr19__to_address_helperIT_EE6__callclsr3stdE7declvalIRKS6_EEEEE4typeES8_, symObjAddr: 0x1EF0, symBinAddr: 0x100003DDC, symSize: 0x24 }
  - { offsetInCU: 0x75FB, offset: 0x75FB, size: 0x8, addend: 0x0, symName: __ZNSt3__118__debug_db_erase_cB7v160006INS_6vectorI8HeapDataNS_9allocatorIS2_EEEEEEvPT_, symObjAddr: 0x21D0, symBinAddr: 0x1000040BC, symSize: 0x10 }
  - { offsetInCU: 0x762C, offset: 0x762C, size: 0x8, addend: 0x0, symName: __ZNSt3__119__libcpp_deallocateB7v160006EPvmm, symObjAddr: 0x2330, symBinAddr: 0x10000421C, symSize: 0x30 }
  - { offsetInCU: 0x7674, offset: 0x7674, size: 0x8, addend: 0x0, symName: __ZNSt3__127__do_deallocate_handle_sizeB7v160006IJEEEvPvmDpT_, symObjAddr: 0x2360, symBinAddr: 0x10000424C, symSize: 0x28 }
  - { offsetInCU: 0x76B2, offset: 0x76B2, size: 0x8, addend: 0x0, symName: __ZNSt3__124__libcpp_operator_deleteB7v160006IJPvEEEvDpT_, symObjAddr: 0x2388, symBinAddr: 0x100004274, symSize: 0x24 }
  - { offsetInCU: 0x76E7, offset: 0x76E7, size: 0x8, addend: 0x0, symName: '__ZNSt3__111__make_heapB7v160006INS_17_ClassicAlgPolicyERZ4mainE3$_0NS_11__wrap_iterIP8HeapDataEEEEvT1_S8_OT0_', symObjAddr: 0x2484, symBinAddr: 0x100004370, symSize: 0xD4 }
  - { offsetInCU: 0x7789, offset: 0x7789, size: 0x8, addend: 0x0, symName: __ZNSt3__1miB7v160006IP8HeapDataS2_EEDTmicldtfp_4baseEcldtfp0_4baseEERKNS_11__wrap_iterIT_EERKNS4_IT0_EE, symObjAddr: 0x2558, symBinAddr: 0x100004444, symSize: 0x48 }
  - { offsetInCU: 0x787B, offset: 0x787B, size: 0x8, addend: 0x0, symName: '__ZNSt3__111__make_heapB7v160006INS_17_ClassicAlgPolicyERZ4mainE3$_1NS_11__wrap_iterIP8HeapDataEEEEvT1_S8_OT0_', symObjAddr: 0x2950, symBinAddr: 0x10000483C, symSize: 0xD4 }
  - { offsetInCU: 0x791D, offset: 0x791D, size: 0x8, addend: 0x0, symName: __ZNSt3__116__pad_and_outputB7v160006IcNS_11char_traitsIcEEEENS_19ostreambuf_iteratorIT_T0_EES6_PKS4_S8_S8_RNS_8ios_baseES4_, symObjAddr: 0x2F80, symBinAddr: 0x100004E6C, symSize: 0x240 }
  - { offsetInCU: 0x79EC, offset: 0x79EC, size: 0x8, addend: 0x0, symName: __ZNSt3__119__debug_db_insert_cB7v160006INS_12basic_stringIcNS_11char_traitsIcEENS_9allocatorIcEEEEEEvPT_, symObjAddr: 0x3434, symBinAddr: 0x100005320, symSize: 0x10 }
  - { offsetInCU: 0x7A1D, offset: 0x7A1D, size: 0x8, addend: 0x0, symName: __ZNSt3__112__to_addressB7v160006IKcEEPT_S3_, symObjAddr: 0x3500, symBinAddr: 0x1000053EC, symSize: 0x14 }
  - { offsetInCU: 0x7A85, offset: 0x7A85, size: 0x8, addend: 0x0, symName: __ZNSt3__19use_facetB7v160006INS_5ctypeIcEEEERKT_RKNS_6localeE, symObjAddr: 0x3780, symBinAddr: 0x10000566C, symSize: 0x2C }
  - { offsetInCU: 0x7F54, offset: 0x7F54, size: 0x8, addend: 0x0, symName: __ZNSt3__118__constexpr_strlenB7v160006EPKc, symObjAddr: 0x3818, symBinAddr: 0x100005704, symSize: 0x24 }
  - { offsetInCU: 0x7F80, offset: 0x7F80, size: 0x8, addend: 0x0, symName: __ZNSt3__13maxB7v160006ImEERKT_S3_S3_, symObjAddr: 0x3C90, symBinAddr: 0x100005B7C, symSize: 0x2C }
  - { offsetInCU: 0x7FC3, offset: 0x7FC3, size: 0x8, addend: 0x0, symName: __ZNSt3__13maxB7v160006ImNS_6__lessImmEEEERKT_S5_S5_T0_, symObjAddr: 0x3CBC, symBinAddr: 0x100005BA8, symSize: 0x54 }
  - { offsetInCU: 0x801D, offset: 0x801D, size: 0x8, addend: 0x0, symName: __ZNSt3__142__uninitialized_allocator_move_if_noexceptB7v160006INS_9allocatorI8HeapDataEENS_16reverse_iteratorIPS2_EES6_S2_vEET1_RT_T0_SA_S7_, symObjAddr: 0x3F3C, symBinAddr: 0x100005E28, symSize: 0x78 }
  - { offsetInCU: 0x809A, offset: 0x809A, size: 0x8, addend: 0x0, symName: __ZNSt3__14swapB7v160006IP8HeapDataEENS_9enable_ifIXaasr21is_move_constructibleIT_EE5valuesr18is_move_assignableIS4_EE5valueEvE4typeERS4_S7_, symObjAddr: 0x3FB4, symBinAddr: 0x100005EA0, symSize: 0x3C }
  - { offsetInCU: 0x80EB, offset: 0x80EB, size: 0x8, addend: 0x0, symName: __ZNSt3__125__debug_db_invalidate_allB7v160006INS_6vectorI8HeapDataNS_9allocatorIS2_EEEEEEvPT_, symObjAddr: 0x3FF0, symBinAddr: 0x100005EDC, symSize: 0x10 }
  - { offsetInCU: 0x811C, offset: 0x811C, size: 0x8, addend: 0x0, symName: __ZNSt3__14moveB7v160006INS_16reverse_iteratorIP8HeapDataEES4_EET0_T_S6_S5_, symObjAddr: 0x4000, symBinAddr: 0x100005EEC, symSize: 0x78 }
  - { offsetInCU: 0x8176, offset: 0x8176, size: 0x8, addend: 0x0, symName: __ZNSt3__16__moveB7v160006INS_17_ClassicAlgPolicyENS_16reverse_iteratorIP8HeapDataEES5_S5_EENS_4pairIT0_T2_EES7_T1_S8_, symObjAddr: 0x4078, symBinAddr: 0x100005F64, symSize: 0x64 }
  - { offsetInCU: 0x81E2, offset: 0x81E2, size: 0x8, addend: 0x0, symName: __ZNSt3__123__dispatch_copy_or_moveB7v160006INS_17_ClassicAlgPolicyENS_11__move_loopIS1_EENS_14__move_trivialENS_16reverse_iteratorIP8HeapDataEES8_S8_EENS_4pairIT2_T4_EESA_T3_SB_, symObjAddr: 0x40DC, symBinAddr: 0x100005FC8, symSize: 0x64 }
  - { offsetInCU: 0x8260, offset: 0x8260, size: 0x8, addend: 0x0, symName: __ZNSt3__121__unwrap_and_dispatchB7v160006INS_10__overloadINS_11__move_loopINS_17_ClassicAlgPolicyEEENS_14__move_trivialEEENS_16reverse_iteratorIP8HeapDataEESA_SA_Li0EEENS_4pairIT0_T2_EESC_T1_SD_, symObjAddr: 0x4140, symBinAddr: 0x10000602C, symSize: 0x12C }
  - { offsetInCU: 0x82F0, offset: 0x82F0, size: 0x8, addend: 0x0, symName: __ZNSt3__114__unwrap_rangeB7v160006INS_16reverse_iteratorIP8HeapDataEES4_EENS_4pairIT0_S6_EET_S8_, symObjAddr: 0x426C, symBinAddr: 0x100006158, symSize: 0x84 }
  - { offsetInCU: 0x8462, offset: 0x8462, size: 0x8, addend: 0x0, symName: __ZNSt3__113__unwrap_iterB7v160006INS_16reverse_iteratorIP8HeapDataEENS_18__unwrap_iter_implIS4_Lb0EEELi0EEEDTclsrT0_8__unwrapclsr3stdE7declvalIT_EEEES8_, symObjAddr: 0x4390, symBinAddr: 0x10000627C, symSize: 0x44 }
  - { offsetInCU: 0x84A6, offset: 0x84A6, size: 0x8, addend: 0x0, symName: __ZNSt3__19make_pairB7v160006INS_16reverse_iteratorIP8HeapDataEES4_EENS_4pairINS_18__unwrap_ref_decayIT_E4typeENS6_IT0_E4typeEEEOS7_OSA_, symObjAddr: 0x43D4, symBinAddr: 0x1000062C0, symSize: 0x38 }
  - { offsetInCU: 0x84F5, offset: 0x84F5, size: 0x8, addend: 0x0, symName: __ZNSt3__114__rewrap_rangeB7v160006INS_16reverse_iteratorIP8HeapDataEES4_EET_S5_T0_, symObjAddr: 0x440C, symBinAddr: 0x1000062F8, symSize: 0x5C }
  - { offsetInCU: 0x8541, offset: 0x8541, size: 0x8, addend: 0x0, symName: __ZNSt3__113__rewrap_iterB7v160006INS_16reverse_iteratorIP8HeapDataEES4_NS_18__unwrap_iter_implIS4_Lb0EEEEET_S7_T0_, symObjAddr: 0x4468, symBinAddr: 0x100006354, symSize: 0x74 }
  - { offsetInCU: 0x85DE, offset: 0x85DE, size: 0x8, addend: 0x0, symName: '__ZNSt3__111__push_heapB7v160006INS_17_ClassicAlgPolicyENS_11__wrap_iterIP8HeapDataEEZ4mainE3$_2EEvT0_S7_RT1_', symObjAddr: 0x47B4, symBinAddr: 0x1000066A0, symSize: 0x5C }
  - { offsetInCU: 0x864B, offset: 0x864B, size: 0x8, addend: 0x0, symName: '__ZNSt3__19__sift_upB7v160006INS_17_ClassicAlgPolicyERZ4mainE3$_2NS_11__wrap_iterIP8HeapDataEEEEvT1_S8_OT0_NS_15iterator_traitsIS8_E15difference_typeE', symObjAddr: 0x4810, symBinAddr: 0x1000066FC, symSize: 0x160 }
  - { offsetInCU: 0x86FB, offset: 0x86FB, size: 0x8, addend: 0x0, symName: '__ZNSt3__115__is_heap_untilB7v160006IRZ4mainE3$_3NS_11__wrap_iterIP8HeapDataEEEET0_S7_S7_OT_', symObjAddr: 0x49DC, symBinAddr: 0x1000068C8, symSize: 0x178 }
  - { offsetInCU: 0x87B4, offset: 0x87B4, size: 0x8, addend: 0x0, symName: '__ZNSt3__111__make_heapB7v160006INS_17_ClassicAlgPolicyERZ4mainE3$_4NS_11__wrap_iterIP8HeapDataEEEEvT1_S8_OT0_', symObjAddr: 0x4BA0, symBinAddr: 0x100006A8C, symSize: 0xD4 }
  - { offsetInCU: 0x8856, offset: 0x8856, size: 0x8, addend: 0x0, symName: '__ZNSt3__110__pop_heapB7v160006INS_17_ClassicAlgPolicyEZ4mainE3$_5NS_11__wrap_iterIP8HeapDataEEEEvT1_S7_RT0_NS_15iterator_traitsIS7_E15difference_typeE', symObjAddr: 0x4F94, symBinAddr: 0x100006E80, symSize: 0x134 }
  - { offsetInCU: 0x8906, offset: 0x8906, size: 0x8, addend: 0x0, symName: '__ZNSt3__19__sift_upB7v160006INS_17_ClassicAlgPolicyERZ4mainE3$_5NS_11__wrap_iterIP8HeapDataEEEEvT1_S8_OT0_NS_15iterator_traitsIS8_E15difference_typeE', symObjAddr: 0x5214, symBinAddr: 0x100007100, symSize: 0x160 }
  - { offsetInCU: 0x89B6, offset: 0x89B6, size: 0x8, addend: 0x0, symName: '__ZNSt3__110__pop_heapB7v160006INS_17_ClassicAlgPolicyEZ4mainE3$_6NS_11__wrap_iterIP8HeapDataEEEEvT1_S7_RT0_NS_15iterator_traitsIS7_E15difference_typeE', symObjAddr: 0x54E8, symBinAddr: 0x1000073D4, symSize: 0x134 }
  - { offsetInCU: 0x8A66, offset: 0x8A66, size: 0x8, addend: 0x0, symName: '__ZNSt3__19__sift_upB7v160006INS_17_ClassicAlgPolicyERZ4mainE3$_6NS_11__wrap_iterIP8HeapDataEEEEvT1_S8_OT0_NS_15iterator_traitsIS8_E15difference_typeE', symObjAddr: 0x5768, symBinAddr: 0x100007654, symSize: 0x160 }
  - { offsetInCU: 0x8E7A, offset: 0x8E7A, size: 0x8, addend: 0x0, symName: __ZSt28__throw_bad_array_new_lengthB7v160006v, symObjAddr: 0x17C4, symBinAddr: 0x1000036B0, symSize: 0x34 }
  - { offsetInCU: 0x950D, offset: 0x950D, size: 0x8, addend: 0x0, symName: __ZNSt3__16vectorI8HeapDataNS_9allocatorIS1_EEE26__swap_out_circular_bufferERNS_14__split_bufferIS1_RS3_EE, symObjAddr: 0x3B4C, symBinAddr: 0x100005A38, symSize: 0x118 }
  - { offsetInCU: 0xB725, offset: 0xB725, size: 0x8, addend: 0x0, symName: __Z11RandInRangeii, symObjAddr: 0x0, symBinAddr: 0x100001EEC, symSize: 0x50 }
  - { offsetInCU: 0xB760, offset: 0xB760, size: 0x8, addend: 0x0, symName: _main, symObjAddr: 0x50, symBinAddr: 0x100001F3C, symSize: 0x88C }
  - { offsetInCU: 0xBA3A, offset: 0xBA3A, size: 0x8, addend: 0x0, symName: __ZN8HeapData11setPriorityEi, symObjAddr: 0x8DC, symBinAddr: 0x1000027C8, symSize: 0x20 }
  - { offsetInCU: 0xBA6D, offset: 0xBA6D, size: 0x8, addend: 0x0, symName: __ZN8HeapData7setDataEi, symObjAddr: 0x8FC, symBinAddr: 0x1000027E8, symSize: 0x20 }
  - { offsetInCU: 0xBAA0, offset: 0xBAA0, size: 0x8, addend: 0x0, symName: __ZNSt3__16vectorI8HeapDataNS_9allocatorIS1_EEEC1IPS1_Li0EEET_S7_, symObjAddr: 0x91C, symBinAddr: 0x100002808, symSize: 0x3C }
  - { offsetInCU: 0xBAF7, offset: 0xBAF7, size: 0x8, addend: 0x0, symName: __ZNSt3__16vectorI8HeapDataNS_9allocatorIS1_EEE5beginB7v160006Ev, symObjAddr: 0x998, symBinAddr: 0x100002884, symSize: 0x30 }
  - { offsetInCU: 0xBB1D, offset: 0xBB1D, size: 0x8, addend: 0x0, symName: __ZNSt3__16vectorI8HeapDataNS_9allocatorIS1_EEE3endB7v160006Ev, symObjAddr: 0x9C8, symBinAddr: 0x1000028B4, symSize: 0x30 }
  - { offsetInCU: 0xBB44, offset: 0xBB44, size: 0x8, addend: 0x0, symName: __ZNKSt3__111__wrap_iterIP8HeapDataEdeB7v160006Ev, symObjAddr: 0xAB4, symBinAddr: 0x1000029A0, symSize: 0x18 }
  - { offsetInCU: 0xBB69, offset: 0xBB69, size: 0x8, addend: 0x0, symName: __ZN8HeapData11getPriorityEv, symObjAddr: 0xACC, symBinAddr: 0x1000029B8, symSize: 0x18 }
  - { offsetInCU: 0xBB8E, offset: 0xBB8E, size: 0x8, addend: 0x0, symName: __ZNSt3__111__wrap_iterIP8HeapDataEppB7v160006Ev, symObjAddr: 0xAE4, symBinAddr: 0x1000029D0, symSize: 0x20 }
  - { offsetInCU: 0xBBB3, offset: 0xBBB3, size: 0x8, addend: 0x0, symName: __ZNSt3__113basic_ostreamIcNS_11char_traitsIcEEElsB7v160006EPFRS3_S4_E, symObjAddr: 0xB04, symBinAddr: 0x1000029F0, symSize: 0x2C }
  - { offsetInCU: 0xBBE6, offset: 0xBBE6, size: 0x8, addend: 0x0, symName: __ZNSt3__16vectorI8HeapDataNS_9allocatorIS1_EEEC1B7v160006Ev, symObjAddr: 0xB88, symBinAddr: 0x100002A74, symSize: 0x2C }
  - { offsetInCU: 0xBC0E, offset: 0xBC0E, size: 0x8, addend: 0x0, symName: __ZNSt3__16vectorI8HeapDataNS_9allocatorIS1_EEE9push_backB7v160006ERKS1_, symObjAddr: 0xBB4, symBinAddr: 0x100002AA0, symSize: 0x6C }
  - { offsetInCU: 0xBC44, offset: 0xBC44, size: 0x8, addend: 0x0, symName: __ZNSt3__16vectorI8HeapDataNS_9allocatorIS1_EEE5frontB7v160006Ev, symObjAddr: 0xD00, symBinAddr: 0x100002BEC, symSize: 0x18 }
  - { offsetInCU: 0xBC68, offset: 0xBC68, size: 0x8, addend: 0x0, symName: __ZNSt3__16vectorI8HeapDataNS_9allocatorIS1_EEE8pop_backEv, symObjAddr: 0xD70, symBinAddr: 0x100002C5C, symSize: 0x2C }
  - { offsetInCU: 0xBC8F, offset: 0xBC8F, size: 0x8, addend: 0x0, symName: __ZNSt3__16vectorI8HeapDataNS_9allocatorIS1_EEED1B7v160006Ev, symObjAddr: 0xDF4, symBinAddr: 0x100002CE0, symSize: 0x2C }
  - { offsetInCU: 0xBCB8, offset: 0xBCB8, size: 0x8, addend: 0x0, symName: __ZNKSt3__111__wrap_iterIP8HeapDataE4baseB7v160006Ev, symObjAddr: 0xE68, symBinAddr: 0x100002D54, symSize: 0x18 }
  - { offsetInCU: 0xBCDD, offset: 0xBCDD, size: 0x8, addend: 0x0, symName: __ZNSt3__16vectorI8HeapDataNS_9allocatorIS1_EEEC2IPS1_Li0EEET_S7_, symObjAddr: 0xE80, symBinAddr: 0x100002D6C, symSize: 0x108 }
  - { offsetInCU: 0xBD64, offset: 0xBD64, size: 0x8, addend: 0x0, symName: __ZNSt3__117__compressed_pairIP8HeapDataNS_9allocatorIS1_EEEC1B7v160006IDnNS_18__default_init_tagEEEOT_OT0_, symObjAddr: 0xF88, symBinAddr: 0x100002E74, symSize: 0x3C }
  - { offsetInCU: 0xBDBB, offset: 0xBDBB, size: 0x8, addend: 0x0, symName: __ZNSt3__16vectorI8HeapDataNS_9allocatorIS1_EEE16__destroy_vectorC1ERS4_, symObjAddr: 0x1004, symBinAddr: 0x100002EF0, symSize: 0x34 }
  - { offsetInCU: 0xBDF3, offset: 0xBDF3, size: 0x8, addend: 0x0, symName: __ZNSt3__16vectorI8HeapDataNS_9allocatorIS1_EEE11__vallocateB7v160006Em, symObjAddr: 0x1074, symBinAddr: 0x100002F60, symSize: 0xAC }
  - { offsetInCU: 0xBE35, offset: 0xBE35, size: 0x8, addend: 0x0, symName: __ZNSt3__16vectorI8HeapDataNS_9allocatorIS1_EEE18__construct_at_endIPS1_Li0EEEvT_S7_m, symObjAddr: 0x1120, symBinAddr: 0x10000300C, symSize: 0x8C }
  - { offsetInCU: 0xBEA7, offset: 0xBEA7, size: 0x8, addend: 0x0, symName: __ZNSt3__128__exception_guard_exceptionsINS_6vectorI8HeapDataNS_9allocatorIS2_EEE16__destroy_vectorEE10__completeB7v160006Ev, symObjAddr: 0x11AC, symBinAddr: 0x100003098, symSize: 0x1C }
  - { offsetInCU: 0xBECC, offset: 0xBECC, size: 0x8, addend: 0x0, symName: __ZNSt3__128__exception_guard_exceptionsINS_6vectorI8HeapDataNS_9allocatorIS2_EEE16__destroy_vectorEED1B7v160006Ev, symObjAddr: 0x11C8, symBinAddr: 0x1000030B4, symSize: 0x2C }
  - { offsetInCU: 0xBEF5, offset: 0xBEF5, size: 0x8, addend: 0x0, symName: __ZNSt3__117__compressed_pairIP8HeapDataNS_9allocatorIS1_EEEC2B7v160006IDnNS_18__default_init_tagEEEOT_OT0_, symObjAddr: 0x11F4, symBinAddr: 0x1000030E0, symSize: 0x40 }
  - { offsetInCU: 0xBF4C, offset: 0xBF4C, size: 0x8, addend: 0x0, symName: __ZNSt3__122__compressed_pair_elemIP8HeapDataLi0ELb0EEC2B7v160006IDnvEEOT_, symObjAddr: 0x1234, symBinAddr: 0x100003120, symSize: 0x1C }
  - { offsetInCU: 0xBF8D, offset: 0xBF8D, size: 0x8, addend: 0x0, symName: __ZNSt3__122__compressed_pair_elemINS_9allocatorI8HeapDataEELi1ELb1EEC2B7v160006ENS_18__default_init_tagE, symObjAddr: 0x1250, symBinAddr: 0x10000313C, symSize: 0x2C }
  - { offsetInCU: 0xBFC0, offset: 0xBFC0, size: 0x8, addend: 0x0, symName: __ZNSt3__19allocatorI8HeapDataEC2B7v160006Ev, symObjAddr: 0x127C, symBinAddr: 0x100003168, symSize: 0x2C }
  - { offsetInCU: 0xBFE9, offset: 0xBFE9, size: 0x8, addend: 0x0, symName: __ZNSt3__116__non_trivial_ifILb1ENS_9allocatorI8HeapDataEEEC2B7v160006Ev, symObjAddr: 0x12A8, symBinAddr: 0x100003194, symSize: 0x14 }
  - { offsetInCU: 0xC012, offset: 0xC012, size: 0x8, addend: 0x0, symName: __ZNSt3__128__exception_guard_exceptionsINS_6vectorI8HeapDataNS_9allocatorIS2_EEE16__destroy_vectorEEC1B7v160006ES6_, symObjAddr: 0x12BC, symBinAddr: 0x1000031A8, symSize: 0x34 }
  - { offsetInCU: 0xC049, offset: 0xC049, size: 0x8, addend: 0x0, symName: __ZNSt3__128__exception_guard_exceptionsINS_6vectorI8HeapDataNS_9allocatorIS2_EEE16__destroy_vectorEEC2B7v160006ES6_, symObjAddr: 0x12F0, symBinAddr: 0x1000031DC, symSize: 0x24 }
  - { offsetInCU: 0xC080, offset: 0xC080, size: 0x8, addend: 0x0, symName: __ZNSt3__16vectorI8HeapDataNS_9allocatorIS1_EEE16__destroy_vectorC2ERS4_, symObjAddr: 0x1314, symBinAddr: 0x100003200, symSize: 0x20 }
  - { offsetInCU: 0xC0B7, offset: 0xC0B7, size: 0x8, addend: 0x0, symName: __ZNKSt3__16vectorI8HeapDataNS_9allocatorIS1_EEE8max_sizeEv, symObjAddr: 0x135C, symBinAddr: 0x100003248, symSize: 0x60 }
  - { offsetInCU: 0xC0DE, offset: 0xC0DE, size: 0x8, addend: 0x0, symName: __ZNKSt3__16vectorI8HeapDataNS_9allocatorIS1_EEE20__throw_length_errorB7v160006Ev, symObjAddr: 0x13BC, symBinAddr: 0x1000032A8, symSize: 0x1C }
  - { offsetInCU: 0xC103, offset: 0xC103, size: 0x8, addend: 0x0, symName: __ZNSt3__16vectorI8HeapDataNS_9allocatorIS1_EEE7__allocB7v160006Ev, symObjAddr: 0x1418, symBinAddr: 0x100003304, symSize: 0x28 }
  - { offsetInCU: 0xC128, offset: 0xC128, size: 0x8, addend: 0x0, symName: __ZNSt3__16vectorI8HeapDataNS_9allocatorIS1_EEE9__end_capB7v160006Ev, symObjAddr: 0x1440, symBinAddr: 0x10000332C, symSize: 0x28 }
  - { offsetInCU: 0xC14D, offset: 0xC14D, size: 0x8, addend: 0x0, symName: __ZNKSt3__16vectorI8HeapDataNS_9allocatorIS1_EEE14__annotate_newB7v160006Em, symObjAddr: 0x1468, symBinAddr: 0x100003354, symSize: 0xAC }
  - { offsetInCU: 0xC18B, offset: 0xC18B, size: 0x8, addend: 0x0, symName: __ZNSt3__116allocator_traitsINS_9allocatorI8HeapDataEEE8max_sizeB7v160006IS3_vEEmRKS3_, symObjAddr: 0x1540, symBinAddr: 0x10000342C, symSize: 0x24 }
  - { offsetInCU: 0xC1B9, offset: 0xC1B9, size: 0x8, addend: 0x0, symName: __ZNKSt3__16vectorI8HeapDataNS_9allocatorIS1_EEE7__allocB7v160006Ev, symObjAddr: 0x1564, symBinAddr: 0x100003450, symSize: 0x28 }
  - { offsetInCU: 0xC1DE, offset: 0xC1DE, size: 0x8, addend: 0x0, symName: __ZNSt3__114numeric_limitsIlE3maxB7v160006Ev, symObjAddr: 0x158C, symBinAddr: 0x100003478, symSize: 0x14 }
  - { offsetInCU: 0xC206, offset: 0xC206, size: 0x8, addend: 0x0, symName: __ZNKSt3__16__lessImmEclB7v160006ERKmS3_, symObjAddr: 0x1600, symBinAddr: 0x1000034EC, symSize: 0x34 }
  - { offsetInCU: 0xC247, offset: 0xC247, size: 0x8, addend: 0x0, symName: __ZNKSt3__19allocatorI8HeapDataE8max_sizeB7v160006Ev, symObjAddr: 0x1634, symBinAddr: 0x100003520, symSize: 0x14 }
  - { offsetInCU: 0xC26C, offset: 0xC26C, size: 0x8, addend: 0x0, symName: __ZNKSt3__117__compressed_pairIP8HeapDataNS_9allocatorIS1_EEE6secondB7v160006Ev, symObjAddr: 0x1648, symBinAddr: 0x100003534, symSize: 0x24 }
  - { offsetInCU: 0xC291, offset: 0xC291, size: 0x8, addend: 0x0, symName: __ZNKSt3__122__compressed_pair_elemINS_9allocatorI8HeapDataEELi1ELb1EE5__getB7v160006Ev, symObjAddr: 0x166C, symBinAddr: 0x100003558, symSize: 0x14 }
  - { offsetInCU: 0xC2B6, offset: 0xC2B6, size: 0x8, addend: 0x0, symName: __ZNSt3__123__libcpp_numeric_limitsIlLb1EE3maxB7v160006Ev, symObjAddr: 0x1680, symBinAddr: 0x10000356C, symSize: 0x8 }
  - { offsetInCU: 0xC2CA, offset: 0xC2CA, size: 0x8, addend: 0x0, symName: __ZNSt12length_errorC1B7v160006EPKc, symObjAddr: 0x16EC, symBinAddr: 0x1000035D8, symSize: 0x34 }
  - { offsetInCU: 0xC301, offset: 0xC301, size: 0x8, addend: 0x0, symName: __ZNSt12length_errorC2B7v160006EPKc, symObjAddr: 0x1720, symBinAddr: 0x10000360C, symSize: 0x4C }
  - { offsetInCU: 0xC338, offset: 0xC338, size: 0x8, addend: 0x0, symName: __ZNSt3__19allocatorI8HeapDataE8allocateB7v160006Em, symObjAddr: 0x176C, symBinAddr: 0x100003658, symSize: 0x58 }
  - { offsetInCU: 0xC36B, offset: 0xC36B, size: 0x8, addend: 0x0, symName: __ZNSt3__117__compressed_pairIP8HeapDataNS_9allocatorIS1_EEE6secondB7v160006Ev, symObjAddr: 0x1844, symBinAddr: 0x100003730, symSize: 0x24 }
  - { offsetInCU: 0xC390, offset: 0xC390, size: 0x8, addend: 0x0, symName: __ZNSt3__122__compressed_pair_elemINS_9allocatorI8HeapDataEELi1ELb1EE5__getB7v160006Ev, symObjAddr: 0x1868, symBinAddr: 0x100003754, symSize: 0x14 }
  - { offsetInCU: 0xC3B5, offset: 0xC3B5, size: 0x8, addend: 0x0, symName: __ZNSt3__117__compressed_pairIP8HeapDataNS_9allocatorIS1_EEE5firstB7v160006Ev, symObjAddr: 0x187C, symBinAddr: 0x100003768, symSize: 0x24 }
  - { offsetInCU: 0xC3DA, offset: 0xC3DA, size: 0x8, addend: 0x0, symName: __ZNSt3__122__compressed_pair_elemIP8HeapDataLi0ELb0EE5__getB7v160006Ev, symObjAddr: 0x18A0, symBinAddr: 0x10000378C, symSize: 0x14 }
  - { offsetInCU: 0xC3FF, offset: 0xC3FF, size: 0x8, addend: 0x0, symName: __ZNKSt3__16vectorI8HeapDataNS_9allocatorIS1_EEE31__annotate_contiguous_containerB7v160006EPKvS6_S6_S6_, symObjAddr: 0x18B4, symBinAddr: 0x1000037A0, symSize: 0x20 }
  - { offsetInCU: 0xC450, offset: 0xC450, size: 0x8, addend: 0x0, symName: __ZNKSt3__16vectorI8HeapDataNS_9allocatorIS1_EEE4dataB7v160006Ev, symObjAddr: 0x18D4, symBinAddr: 0x1000037C0, symSize: 0x28 }
  - { offsetInCU: 0xC475, offset: 0xC475, size: 0x8, addend: 0x0, symName: __ZNKSt3__16vectorI8HeapDataNS_9allocatorIS1_EEE8capacityB7v160006Ev, symObjAddr: 0x18FC, symBinAddr: 0x1000037E8, symSize: 0x40 }
  - { offsetInCU: 0xC49A, offset: 0xC49A, size: 0x8, addend: 0x0, symName: __ZNKSt3__16vectorI8HeapDataNS_9allocatorIS1_EEE9__end_capB7v160006Ev, symObjAddr: 0x1950, symBinAddr: 0x10000383C, symSize: 0x28 }
  - { offsetInCU: 0xC4BF, offset: 0xC4BF, size: 0x8, addend: 0x0, symName: __ZNKSt3__117__compressed_pairIP8HeapDataNS_9allocatorIS1_EEE5firstB7v160006Ev, symObjAddr: 0x1978, symBinAddr: 0x100003864, symSize: 0x24 }
  - { offsetInCU: 0xC4E4, offset: 0xC4E4, size: 0x8, addend: 0x0, symName: __ZNKSt3__122__compressed_pair_elemIP8HeapDataLi0ELb0EE5__getB7v160006Ev, symObjAddr: 0x199C, symBinAddr: 0x100003888, symSize: 0x14 }
  - { offsetInCU: 0xC522, offset: 0xC522, size: 0x8, addend: 0x0, symName: __ZNSt3__16vectorI8HeapDataNS_9allocatorIS1_EEE21_ConstructTransactionC1B7v160006ERS4_m, symObjAddr: 0x19B0, symBinAddr: 0x10000389C, symSize: 0x3C }
  - { offsetInCU: 0xC569, offset: 0xC569, size: 0x8, addend: 0x0, symName: __ZNSt3__16vectorI8HeapDataNS_9allocatorIS1_EEE21_ConstructTransactionD1B7v160006Ev, symObjAddr: 0x1AE0, symBinAddr: 0x1000039CC, symSize: 0x2C }
  - { offsetInCU: 0xC592, offset: 0xC592, size: 0x8, addend: 0x0, symName: __ZNSt3__16vectorI8HeapDataNS_9allocatorIS1_EEE21_ConstructTransactionC2B7v160006ERS4_m, symObjAddr: 0x1B0C, symBinAddr: 0x1000039F8, symSize: 0x44 }
  - { offsetInCU: 0xC5D9, offset: 0xC5D9, size: 0x8, addend: 0x0, symName: __ZNSt3__129_AllocatorDestroyRangeReverseINS_9allocatorI8HeapDataEEPS2_EC1B7v160006ERS3_RS4_S7_, symObjAddr: 0x1B9C, symBinAddr: 0x100003A88, symSize: 0x44 }
  - { offsetInCU: 0xC62F, offset: 0xC62F, size: 0x8, addend: 0x0, symName: __ZNSt3__116allocator_traitsINS_9allocatorI8HeapDataEEE9constructB7v160006IS2_JRS2_EvEEvRS3_PT_DpOT0_, symObjAddr: 0x1BE0, symBinAddr: 0x100003ACC, symSize: 0x34 }
  - { offsetInCU: 0xC686, offset: 0xC686, size: 0x8, addend: 0x0, symName: __ZNSt3__128__exception_guard_exceptionsINS_29_AllocatorDestroyRangeReverseINS_9allocatorI8HeapDataEEPS3_EEE10__completeB7v160006Ev, symObjAddr: 0x1C14, symBinAddr: 0x100003B00, symSize: 0x1C }
  - { offsetInCU: 0xC6AB, offset: 0xC6AB, size: 0x8, addend: 0x0, symName: __ZNSt3__128__exception_guard_exceptionsINS_29_AllocatorDestroyRangeReverseINS_9allocatorI8HeapDataEEPS3_EEED1B7v160006Ev, symObjAddr: 0x1C30, symBinAddr: 0x100003B1C, symSize: 0x2C }
  - { offsetInCU: 0xC6D4, offset: 0xC6D4, size: 0x8, addend: 0x0, symName: __ZNSt3__128__exception_guard_exceptionsINS_29_AllocatorDestroyRangeReverseINS_9allocatorI8HeapDataEEPS3_EEEC1B7v160006ES6_, symObjAddr: 0x1C5C, symBinAddr: 0x100003B48, symSize: 0x34 }
  - { offsetInCU: 0xC70C, offset: 0xC70C, size: 0x8, addend: 0x0, symName: __ZNSt3__128__exception_guard_exceptionsINS_29_AllocatorDestroyRangeReverseINS_9allocatorI8HeapDataEEPS3_EEEC2B7v160006ES6_, symObjAddr: 0x1C90, symBinAddr: 0x100003B7C, symSize: 0x30 }
  - { offsetInCU: 0xC744, offset: 0xC744, size: 0x8, addend: 0x0, symName: __ZNSt3__129_AllocatorDestroyRangeReverseINS_9allocatorI8HeapDataEEPS2_EC2B7v160006ERS3_RS4_S7_, symObjAddr: 0x1CC0, symBinAddr: 0x100003BAC, symSize: 0x38 }
  - { offsetInCU: 0xC79A, offset: 0xC79A, size: 0x8, addend: 0x0, symName: __ZNSt3__19allocatorI8HeapDataE9constructB7v160006IS1_JRS1_EEEvPT_DpOT0_, symObjAddr: 0x1CF8, symBinAddr: 0x100003BE4, symSize: 0x28 }
  - { offsetInCU: 0xC7EF, offset: 0xC7EF, size: 0x8, addend: 0x0, symName: __ZNSt3__128__exception_guard_exceptionsINS_29_AllocatorDestroyRangeReverseINS_9allocatorI8HeapDataEEPS3_EEED2B7v160006Ev, symObjAddr: 0x1D20, symBinAddr: 0x100003C0C, symSize: 0x50 }
  - { offsetInCU: 0xC818, offset: 0xC818, size: 0x8, addend: 0x0, symName: __ZNKSt3__129_AllocatorDestroyRangeReverseINS_9allocatorI8HeapDataEEPS2_EclB7v160006Ev, symObjAddr: 0x1D70, symBinAddr: 0x100003C5C, symSize: 0x68 }
  - { offsetInCU: 0xC83D, offset: 0xC83D, size: 0x8, addend: 0x0, symName: __ZNSt3__116reverse_iteratorIP8HeapDataEC1B7v160006ES2_, symObjAddr: 0x1E48, symBinAddr: 0x100003D34, symSize: 0x34 }
  - { offsetInCU: 0xC874, offset: 0xC874, size: 0x8, addend: 0x0, symName: __ZNSt3__116allocator_traitsINS_9allocatorI8HeapDataEEE7destroyB7v160006IS2_vEEvRS3_PT_, symObjAddr: 0x1EC4, symBinAddr: 0x100003DB0, symSize: 0x2C }
  - { offsetInCU: 0xC8B1, offset: 0xC8B1, size: 0x8, addend: 0x0, symName: __ZNSt3__116reverse_iteratorIP8HeapDataEppB7v160006Ev, symObjAddr: 0x1F14, symBinAddr: 0x100003E00, symSize: 0x20 }
  - { offsetInCU: 0xC8D6, offset: 0xC8D6, size: 0x8, addend: 0x0, symName: __ZNKSt3__116reverse_iteratorIP8HeapDataE4baseB7v160006Ev, symObjAddr: 0x1F34, symBinAddr: 0x100003E20, symSize: 0x18 }
  - { offsetInCU: 0xC8FB, offset: 0xC8FB, size: 0x8, addend: 0x0, symName: __ZNSt3__19allocatorI8HeapDataE7destroyB7v160006EPS1_, symObjAddr: 0x1F4C, symBinAddr: 0x100003E38, symSize: 0x14 }
  - { offsetInCU: 0xC933, offset: 0xC933, size: 0x8, addend: 0x0, symName: __ZNSt3__119__to_address_helperINS_16reverse_iteratorIP8HeapDataEEvE6__callB7v160006ERKS4_, symObjAddr: 0x1F60, symBinAddr: 0x100003E4C, symSize: 0x38 }
  - { offsetInCU: 0xC956, offset: 0xC956, size: 0x8, addend: 0x0, symName: __ZNKSt3__116reverse_iteratorIP8HeapDataEptB7v160006Ev, symObjAddr: 0x1F98, symBinAddr: 0x100003E84, symSize: 0x24 }
  - { offsetInCU: 0xC97B, offset: 0xC97B, size: 0x8, addend: 0x0, symName: __ZNKSt3__116reverse_iteratorIP8HeapDataEdeB7v160006Ev, symObjAddr: 0x1FBC, symBinAddr: 0x100003EA8, symSize: 0x28 }
  - { offsetInCU: 0xC9AE, offset: 0xC9AE, size: 0x8, addend: 0x0, symName: __ZNSt3__116reverse_iteratorIP8HeapDataEC2B7v160006ES2_, symObjAddr: 0x1FE4, symBinAddr: 0x100003ED0, symSize: 0x28 }
  - { offsetInCU: 0xC9E5, offset: 0xC9E5, size: 0x8, addend: 0x0, symName: __ZNSt3__16vectorI8HeapDataNS_9allocatorIS1_EEE21_ConstructTransactionD2B7v160006Ev, symObjAddr: 0x200C, symBinAddr: 0x100003EF8, symSize: 0x20 }
  - { offsetInCU: 0xCA0E, offset: 0xCA0E, size: 0x8, addend: 0x0, symName: __ZNSt3__128__exception_guard_exceptionsINS_6vectorI8HeapDataNS_9allocatorIS2_EEE16__destroy_vectorEED2B7v160006Ev, symObjAddr: 0x202C, symBinAddr: 0x100003F18, symSize: 0x50 }
  - { offsetInCU: 0xCA37, offset: 0xCA37, size: 0x8, addend: 0x0, symName: __ZNSt3__16vectorI8HeapDataNS_9allocatorIS1_EEE16__destroy_vectorclB7v160006Ev, symObjAddr: 0x207C, symBinAddr: 0x100003F68, symSize: 0x9C }
  - { offsetInCU: 0xCA5C, offset: 0xCA5C, size: 0x8, addend: 0x0, symName: __ZNKSt3__16vectorI8HeapDataNS_9allocatorIS1_EEE17__annotate_deleteB7v160006Ev, symObjAddr: 0x2118, symBinAddr: 0x100004004, symSize: 0xB8 }
  - { offsetInCU: 0xCA81, offset: 0xCA81, size: 0x8, addend: 0x0, symName: __ZNSt3__16vectorI8HeapDataNS_9allocatorIS1_EEE7__clearB7v160006Ev, symObjAddr: 0x21E0, symBinAddr: 0x1000040CC, symSize: 0x28 }
  - { offsetInCU: 0xCAA6, offset: 0xCAA6, size: 0x8, addend: 0x0, symName: __ZNSt3__116allocator_traitsINS_9allocatorI8HeapDataEEE10deallocateB7v160006ERS3_PS2_m, symObjAddr: 0x2208, symBinAddr: 0x1000040F4, symSize: 0x34 }
  - { offsetInCU: 0xCAE8, offset: 0xCAE8, size: 0x8, addend: 0x0, symName: __ZNKSt3__16vectorI8HeapDataNS_9allocatorIS1_EEE4sizeB7v160006Ev, symObjAddr: 0x223C, symBinAddr: 0x100004128, symSize: 0x28 }
  - { offsetInCU: 0xCB0D, offset: 0xCB0D, size: 0x8, addend: 0x0, symName: __ZNSt3__16vectorI8HeapDataNS_9allocatorIS1_EEE22__base_destruct_at_endB7v160006EPS1_, symObjAddr: 0x2264, symBinAddr: 0x100004150, symSize: 0x8C }
  - { offsetInCU: 0xCB50, offset: 0xCB50, size: 0x8, addend: 0x0, symName: __ZNSt3__19allocatorI8HeapDataE10deallocateB7v160006EPS1_m, symObjAddr: 0x22F0, symBinAddr: 0x1000041DC, symSize: 0x40 }
  - { offsetInCU: 0xCB91, offset: 0xCB91, size: 0x8, addend: 0x0, symName: __ZNSt3__16vectorI8HeapDataNS_9allocatorIS1_EEED2B7v160006Ev, symObjAddr: 0x23AC, symBinAddr: 0x100004298, symSize: 0x44 }
  - { offsetInCU: 0xCBBA, offset: 0xCBBA, size: 0x8, addend: 0x0, symName: __ZNSt3__16vectorI8HeapDataNS_9allocatorIS1_EEE11__make_iterB7v160006EPS1_, symObjAddr: 0x23F0, symBinAddr: 0x1000042DC, symSize: 0x34 }
  - { offsetInCU: 0xCBEE, offset: 0xCBEE, size: 0x8, addend: 0x0, symName: __ZNSt3__111__wrap_iterIP8HeapDataEC1B7v160006EPKvS2_, symObjAddr: 0x2424, symBinAddr: 0x100004310, symSize: 0x3C }
  - { offsetInCU: 0xCC33, offset: 0xCC33, size: 0x8, addend: 0x0, symName: __ZNSt3__111__wrap_iterIP8HeapDataEC2B7v160006EPKvS2_, symObjAddr: 0x2460, symBinAddr: 0x10000434C, symSize: 0x24 }
  - { offsetInCU: 0xCC78, offset: 0xCC78, size: 0x8, addend: 0x0, symName: __ZNKSt3__111__wrap_iterIP8HeapDataEplB7v160006El, symObjAddr: 0x2874, symBinAddr: 0x100004760, symSize: 0x3C }
  - { offsetInCU: 0xCCC3, offset: 0xCCC3, size: 0x8, addend: 0x0, symName: '__ZZ4mainENK3$_0clER8HeapDataS1_', symObjAddr: 0x28B0, symBinAddr: 0x10000479C, symSize: 0x4C }
  - { offsetInCU: 0xCD0D, offset: 0xCD0D, size: 0x8, addend: 0x0, symName: __ZNSt3__18_IterOpsINS_17_ClassicAlgPolicyEE11__iter_moveB7v160006IRNS_11__wrap_iterIP8HeapDataEEEENS_9enable_ifIXsr12is_referenceIDTdeclsr3stdE7declvalIRT_EEEEE5valueEDTclsr3stdE4movedeclsr3stdE7declvalISB_EEEEE4typeEOSA_, symObjAddr: 0x28FC, symBinAddr: 0x1000047E8, symSize: 0x28 }
  - { offsetInCU: 0xCD39, offset: 0xCD39, size: 0x8, addend: 0x0, symName: __ZNSt3__18_IterOpsINS_17_ClassicAlgPolicyEE25__validate_iter_referenceB7v160006IRNS_11__wrap_iterIP8HeapDataEEEEvv, symObjAddr: 0x2924, symBinAddr: 0x100004810, symSize: 0x4 }
  - { offsetInCU: 0xCD57, offset: 0xCD57, size: 0x8, addend: 0x0, symName: __ZNSt3__111__wrap_iterIP8HeapDataEpLB7v160006El, symObjAddr: 0x2928, symBinAddr: 0x100004814, symSize: 0x28 }
  - { offsetInCU: 0xCD94, offset: 0xCD94, size: 0x8, addend: 0x0, symName: '__ZZ4mainENK3$_1clER8HeapDataS1_', symObjAddr: 0x2CF8, symBinAddr: 0x100004BE4, symSize: 0x4C }
  - { offsetInCU: 0xCDD9, offset: 0xCDD9, size: 0x8, addend: 0x0, symName: __ZNSt3__111char_traitsIcE6lengthEPKc, symObjAddr: 0x2F30, symBinAddr: 0x100004E1C, symSize: 0x34 }
  - { offsetInCU: 0xCE1A, offset: 0xCE1A, size: 0x8, addend: 0x0, symName: __ZNKSt3__113basic_ostreamIcNS_11char_traitsIcEEE6sentrycvbB7v160006Ev, symObjAddr: 0x2F64, symBinAddr: 0x100004E50, symSize: 0x1C }
  - { offsetInCU: 0xCE3F, offset: 0xCE3F, size: 0x8, addend: 0x0, symName: __ZNSt3__119ostreambuf_iteratorIcNS_11char_traitsIcEEEC1B7v160006ERNS_13basic_ostreamIcS2_EE, symObjAddr: 0x31C0, symBinAddr: 0x1000050AC, symSize: 0x34 }
  - { offsetInCU: 0xCE76, offset: 0xCE76, size: 0x8, addend: 0x0, symName: __ZNKSt3__18ios_base5flagsB7v160006Ev, symObjAddr: 0x31F4, symBinAddr: 0x1000050E0, symSize: 0x18 }
  - { offsetInCU: 0xCE9C, offset: 0xCE9C, size: 0x8, addend: 0x0, symName: __ZNKSt3__19basic_iosIcNS_11char_traitsIcEEE4fillB7v160006Ev, symObjAddr: 0x320C, symBinAddr: 0x1000050F8, symSize: 0x64 }
  - { offsetInCU: 0xCEC3, offset: 0xCEC3, size: 0x8, addend: 0x0, symName: __ZNKSt3__119ostreambuf_iteratorIcNS_11char_traitsIcEEE6failedB7v160006Ev, symObjAddr: 0x3270, symBinAddr: 0x10000515C, symSize: 0x24 }
  - { offsetInCU: 0xCEE8, offset: 0xCEE8, size: 0x8, addend: 0x0, symName: __ZNSt3__19basic_iosIcNS_11char_traitsIcEEE8setstateB7v160006Ej, symObjAddr: 0x3294, symBinAddr: 0x100005180, symSize: 0x2C }
  - { offsetInCU: 0xCF1C, offset: 0xCF1C, size: 0x8, addend: 0x0, symName: __ZNKSt3__18ios_base5widthB7v160006Ev, symObjAddr: 0x32C0, symBinAddr: 0x1000051AC, symSize: 0x18 }
  - { offsetInCU: 0xCF43, offset: 0xCF43, size: 0x8, addend: 0x0, symName: __ZNSt3__115basic_streambufIcNS_11char_traitsIcEEE5sputnB7v160006EPKcl, symObjAddr: 0x32D8, symBinAddr: 0x1000051C4, symSize: 0x3C }
  - { offsetInCU: 0xCF84, offset: 0xCF84, size: 0x8, addend: 0x0, symName: __ZNSt3__112basic_stringIcNS_11char_traitsIcEENS_9allocatorIcEEEC1B7v160006Emc, symObjAddr: 0x3314, symBinAddr: 0x100005200, symSize: 0x3C }
  - { offsetInCU: 0xCFCB, offset: 0xCFCB, size: 0x8, addend: 0x0, symName: __ZNKSt3__112basic_stringIcNS_11char_traitsIcEENS_9allocatorIcEEE4dataB7v160006Ev, symObjAddr: 0x3350, symBinAddr: 0x10000523C, symSize: 0x28 }
  - { offsetInCU: 0xCFF0, offset: 0xCFF0, size: 0x8, addend: 0x0, symName: __ZNSt3__18ios_base5widthB7v160006El, symObjAddr: 0x3378, symBinAddr: 0x100005264, symSize: 0x2C }
  - { offsetInCU: 0xD035, offset: 0xD035, size: 0x8, addend: 0x0, symName: __ZNSt3__112basic_stringIcNS_11char_traitsIcEENS_9allocatorIcEEEC2B7v160006Emc, symObjAddr: 0x33A4, symBinAddr: 0x100005290, symSize: 0x54 }
  - { offsetInCU: 0xD07C, offset: 0xD07C, size: 0x8, addend: 0x0, symName: __ZNSt3__117__compressed_pairINS_12basic_stringIcNS_11char_traitsIcEENS_9allocatorIcEEE5__repES5_EC1B7v160006INS_18__default_init_tagESA_EEOT_OT0_, symObjAddr: 0x33F8, symBinAddr: 0x1000052E4, symSize: 0x3C }
  - { offsetInCU: 0xD0D3, offset: 0xD0D3, size: 0x8, addend: 0x0, symName: __ZNSt3__117__compressed_pairINS_12basic_stringIcNS_11char_traitsIcEENS_9allocatorIcEEE5__repES5_EC2B7v160006INS_18__default_init_tagESA_EEOT_OT0_, symObjAddr: 0x3444, symBinAddr: 0x100005330, symSize: 0x3C }
  - { offsetInCU: 0xD12A, offset: 0xD12A, size: 0x8, addend: 0x0, symName: __ZNSt3__122__compressed_pair_elemINS_12basic_stringIcNS_11char_traitsIcEENS_9allocatorIcEEE5__repELi0ELb0EEC2B7v160006ENS_18__default_init_tagE, symObjAddr: 0x3480, symBinAddr: 0x10000536C, symSize: 0x14 }
  - { offsetInCU: 0xD15D, offset: 0xD15D, size: 0x8, addend: 0x0, symName: __ZNSt3__122__compressed_pair_elemINS_9allocatorIcEELi1ELb1EEC2B7v160006ENS_18__default_init_tagE, symObjAddr: 0x3494, symBinAddr: 0x100005380, symSize: 0x2C }
  - { offsetInCU: 0xD190, offset: 0xD190, size: 0x8, addend: 0x0, symName: __ZNSt3__19allocatorIcEC2B7v160006Ev, symObjAddr: 0x34C0, symBinAddr: 0x1000053AC, symSize: 0x2C }
  - { offsetInCU: 0xD1B9, offset: 0xD1B9, size: 0x8, addend: 0x0, symName: __ZNSt3__116__non_trivial_ifILb1ENS_9allocatorIcEEEC2B7v160006Ev, symObjAddr: 0x34EC, symBinAddr: 0x1000053D8, symSize: 0x14 }
  - { offsetInCU: 0xD1E2, offset: 0xD1E2, size: 0x8, addend: 0x0, symName: __ZNKSt3__112basic_stringIcNS_11char_traitsIcEENS_9allocatorIcEEE13__get_pointerB7v160006Ev, symObjAddr: 0x3514, symBinAddr: 0x100005400, symSize: 0x54 }
  - { offsetInCU: 0xD207, offset: 0xD207, size: 0x8, addend: 0x0, symName: __ZNKSt3__112basic_stringIcNS_11char_traitsIcEENS_9allocatorIcEEE9__is_longB7v160006Ev, symObjAddr: 0x3568, symBinAddr: 0x100005454, symSize: 0x38 }
  - { offsetInCU: 0xD22C, offset: 0xD22C, size: 0x8, addend: 0x0, symName: __ZNKSt3__112basic_stringIcNS_11char_traitsIcEENS_9allocatorIcEEE18__get_long_pointerB7v160006Ev, symObjAddr: 0x35A0, symBinAddr: 0x10000548C, symSize: 0x28 }
  - { offsetInCU: 0xD251, offset: 0xD251, size: 0x8, addend: 0x0, symName: __ZNKSt3__112basic_stringIcNS_11char_traitsIcEENS_9allocatorIcEEE19__get_short_pointerB7v160006Ev, symObjAddr: 0x35C8, symBinAddr: 0x1000054B4, symSize: 0x28 }
  - { offsetInCU: 0xD276, offset: 0xD276, size: 0x8, addend: 0x0, symName: __ZNKSt3__117__compressed_pairINS_12basic_stringIcNS_11char_traitsIcEENS_9allocatorIcEEE5__repES5_E5firstB7v160006Ev, symObjAddr: 0x35F0, symBinAddr: 0x1000054DC, symSize: 0x24 }
  - { offsetInCU: 0xD29B, offset: 0xD29B, size: 0x8, addend: 0x0, symName: __ZNKSt3__122__compressed_pair_elemINS_12basic_stringIcNS_11char_traitsIcEENS_9allocatorIcEEE5__repELi0ELb0EE5__getB7v160006Ev, symObjAddr: 0x3614, symBinAddr: 0x100005500, symSize: 0x14 }
  - { offsetInCU: 0xD2C0, offset: 0xD2C0, size: 0x8, addend: 0x0, symName: __ZNSt3__114pointer_traitsIPKcE10pointer_toB7v160006ERS1_, symObjAddr: 0x3628, symBinAddr: 0x100005514, symSize: 0x14 }
  - { offsetInCU: 0xD2E3, offset: 0xD2E3, size: 0x8, addend: 0x0, symName: __ZNSt3__119ostreambuf_iteratorIcNS_11char_traitsIcEEEC2B7v160006ERNS_13basic_ostreamIcS2_EE, symObjAddr: 0x363C, symBinAddr: 0x100005528, symSize: 0x54 }
  - { offsetInCU: 0xD319, offset: 0xD319, size: 0x8, addend: 0x0, symName: __ZNKSt3__19basic_iosIcNS_11char_traitsIcEEE5rdbufB7v160006Ev, symObjAddr: 0x3690, symBinAddr: 0x10000557C, symSize: 0x24 }
  - { offsetInCU: 0xD340, offset: 0xD340, size: 0x8, addend: 0x0, symName: __ZNKSt3__18ios_base5rdbufB7v160006Ev, symObjAddr: 0x36B4, symBinAddr: 0x1000055A0, symSize: 0x18 }
  - { offsetInCU: 0xD365, offset: 0xD365, size: 0x8, addend: 0x0, symName: __ZNSt3__111char_traitsIcE11eq_int_typeEii, symObjAddr: 0x36CC, symBinAddr: 0x1000055B8, symSize: 0x28 }
  - { offsetInCU: 0xD396, offset: 0xD396, size: 0x8, addend: 0x0, symName: __ZNSt3__111char_traitsIcE3eofEv, symObjAddr: 0x36F4, symBinAddr: 0x1000055E0, symSize: 0x8 }
  - { offsetInCU: 0xD3A9, offset: 0xD3A9, size: 0x8, addend: 0x0, symName: __ZNKSt3__19basic_iosIcNS_11char_traitsIcEEE5widenB7v160006Ec, symObjAddr: 0x36FC, symBinAddr: 0x1000055E8, symSize: 0x84 }
  - { offsetInCU: 0xD416, offset: 0xD416, size: 0x8, addend: 0x0, symName: __ZNKSt3__15ctypeIcE5widenB7v160006Ec, symObjAddr: 0x37AC, symBinAddr: 0x100005698, symSize: 0x38 }
  - { offsetInCU: 0xD449, offset: 0xD449, size: 0x8, addend: 0x0, symName: __ZNSt3__18ios_base8setstateB7v160006Ej, symObjAddr: 0x37E4, symBinAddr: 0x1000056D0, symSize: 0x34 }
  - { offsetInCU: 0xD47F, offset: 0xD47F, size: 0x8, addend: 0x0, symName: __ZNSt3__16vectorI8HeapDataNS_9allocatorIS1_EEEC2B7v160006Ev, symObjAddr: 0x383C, symBinAddr: 0x100005728, symSize: 0x54 }
  - { offsetInCU: 0xD4A8, offset: 0xD4A8, size: 0x8, addend: 0x0, symName: __ZNSt3__16vectorI8HeapDataNS_9allocatorIS1_EEE22__construct_one_at_endB7v160006IJRKS1_EEEvDpOT_, symObjAddr: 0x3890, symBinAddr: 0x10000577C, symSize: 0x90 }
  - { offsetInCU: 0xD4F5, offset: 0xD4F5, size: 0x8, addend: 0x0, symName: __ZNSt3__16vectorI8HeapDataNS_9allocatorIS1_EEE21__push_back_slow_pathIRKS1_EEvOT_, symObjAddr: 0x3920, symBinAddr: 0x10000580C, symSize: 0xD8 }
  - { offsetInCU: 0xD552, offset: 0xD552, size: 0x8, addend: 0x0, symName: __ZNSt3__116allocator_traitsINS_9allocatorI8HeapDataEEE9constructB7v160006IS2_JRKS2_EvEEvRS3_PT_DpOT0_, symObjAddr: 0x39F8, symBinAddr: 0x1000058E4, symSize: 0x34 }
  - { offsetInCU: 0xD5A9, offset: 0xD5A9, size: 0x8, addend: 0x0, symName: __ZNSt3__19allocatorI8HeapDataE9constructB7v160006IS1_JRKS1_EEEvPT_DpOT0_, symObjAddr: 0x3A2C, symBinAddr: 0x100005918, symSize: 0x28 }
  - { offsetInCU: 0xD5FD, offset: 0xD5FD, size: 0x8, addend: 0x0, symName: __ZNKSt3__16vectorI8HeapDataNS_9allocatorIS1_EEE11__recommendB7v160006Em, symObjAddr: 0x3A54, symBinAddr: 0x100005940, symSize: 0xB4 }
  - { offsetInCU: 0xD651, offset: 0xD651, size: 0x8, addend: 0x0, symName: __ZNSt3__114__split_bufferI8HeapDataRNS_9allocatorIS1_EEEC1EmmS4_, symObjAddr: 0x3B08, symBinAddr: 0x1000059F4, symSize: 0x44 }
  - { offsetInCU: 0xD6A6, offset: 0xD6A6, size: 0x8, addend: 0x0, symName: __ZNSt3__114__split_bufferI8HeapDataRNS_9allocatorIS1_EEED1Ev, symObjAddr: 0x3C64, symBinAddr: 0x100005B50, symSize: 0x2C }
  - { offsetInCU: 0xD6D1, offset: 0xD6D1, size: 0x8, addend: 0x0, symName: __ZNSt3__114__split_bufferI8HeapDataRNS_9allocatorIS1_EEEC2EmmS4_, symObjAddr: 0x3D10, symBinAddr: 0x100005BFC, symSize: 0xD4 }
  - { offsetInCU: 0xD743, offset: 0xD743, size: 0x8, addend: 0x0, symName: __ZNSt3__117__compressed_pairIP8HeapDataRNS_9allocatorIS1_EEEC1B7v160006IDnS5_EEOT_OT0_, symObjAddr: 0x3DE4, symBinAddr: 0x100005CD0, symSize: 0x3C }
  - { offsetInCU: 0xD79A, offset: 0xD79A, size: 0x8, addend: 0x0, symName: __ZNSt3__114__split_bufferI8HeapDataRNS_9allocatorIS1_EEE7__allocB7v160006Ev, symObjAddr: 0x3E20, symBinAddr: 0x100005D0C, symSize: 0x28 }
  - { offsetInCU: 0xD7BF, offset: 0xD7BF, size: 0x8, addend: 0x0, symName: __ZNSt3__114__split_bufferI8HeapDataRNS_9allocatorIS1_EEE9__end_capB7v160006Ev, symObjAddr: 0x3E48, symBinAddr: 0x100005D34, symSize: 0x28 }
  - { offsetInCU: 0xD7E4, offset: 0xD7E4, size: 0x8, addend: 0x0, symName: __ZNSt3__117__compressed_pairIP8HeapDataRNS_9allocatorIS1_EEEC2B7v160006IDnS5_EEOT_OT0_, symObjAddr: 0x3E70, symBinAddr: 0x100005D5C, symSize: 0x48 }
  - { offsetInCU: 0xD83B, offset: 0xD83B, size: 0x8, addend: 0x0, symName: __ZNSt3__122__compressed_pair_elemIRNS_9allocatorI8HeapDataEELi1ELb0EEC2B7v160006IS4_vEEOT_, symObjAddr: 0x3EB8, symBinAddr: 0x100005DA4, symSize: 0x20 }
  - { offsetInCU: 0xD87C, offset: 0xD87C, size: 0x8, addend: 0x0, symName: __ZNSt3__117__compressed_pairIP8HeapDataRNS_9allocatorIS1_EEE6secondB7v160006Ev, symObjAddr: 0x3ED8, symBinAddr: 0x100005DC4, symSize: 0x28 }
  - { offsetInCU: 0xD8A1, offset: 0xD8A1, size: 0x8, addend: 0x0, symName: __ZNSt3__122__compressed_pair_elemIRNS_9allocatorI8HeapDataEELi1ELb0EE5__getB7v160006Ev, symObjAddr: 0x3F00, symBinAddr: 0x100005DEC, symSize: 0x18 }
  - { offsetInCU: 0xD8C6, offset: 0xD8C6, size: 0x8, addend: 0x0, symName: __ZNSt3__117__compressed_pairIP8HeapDataRNS_9allocatorIS1_EEE5firstB7v160006Ev, symObjAddr: 0x3F18, symBinAddr: 0x100005E04, symSize: 0x24 }
  - { offsetInCU: 0xD90E, offset: 0xD90E, size: 0x8, addend: 0x0, symName: __ZNKSt3__111__move_loopINS_17_ClassicAlgPolicyEEclB7v160006INS_16reverse_iteratorIP8HeapDataEES7_S7_EENS_4pairIT_T1_EES9_T0_SA_, symObjAddr: 0x42F0, symBinAddr: 0x1000061DC, symSize: 0xA0 }
  - { offsetInCU: 0xD978, offset: 0xD978, size: 0x8, addend: 0x0, symName: __ZNSt3__18_IterOpsINS_17_ClassicAlgPolicyEE11__iter_moveB7v160006IRNS_16reverse_iteratorIP8HeapDataEEEENS_9enable_ifIXsr12is_referenceIDTdeclsr3stdE7declvalIRT_EEEEE5valueEDTclsr3stdE4movedeclsr3stdE7declvalISB_EEEEE4typeEOSA_, symObjAddr: 0x44DC, symBinAddr: 0x1000063C8, symSize: 0x28 }
  - { offsetInCU: 0xD9A4, offset: 0xD9A4, size: 0x8, addend: 0x0, symName: __ZNSt3__18_IterOpsINS_17_ClassicAlgPolicyEE25__validate_iter_referenceB7v160006IRNS_16reverse_iteratorIP8HeapDataEEEEvv, symObjAddr: 0x4504, symBinAddr: 0x1000063F0, symSize: 0x4 }
  - { offsetInCU: 0xD9C2, offset: 0xD9C2, size: 0x8, addend: 0x0, symName: __ZNSt3__118__unwrap_iter_implINS_16reverse_iteratorIP8HeapDataEELb0EE8__unwrapB7v160006ES4_, symObjAddr: 0x4508, symBinAddr: 0x1000063F4, symSize: 0x24 }
  - { offsetInCU: 0xD9EA, offset: 0xD9EA, size: 0x8, addend: 0x0, symName: __ZNSt3__14pairINS_16reverse_iteratorIP8HeapDataEES4_EC1B7v160006IS4_S4_LPv0EEEOT_OT0_, symObjAddr: 0x452C, symBinAddr: 0x100006418, symSize: 0x3C }
  - { offsetInCU: 0xDA47, offset: 0xDA47, size: 0x8, addend: 0x0, symName: __ZNSt3__14pairINS_16reverse_iteratorIP8HeapDataEES4_EC2B7v160006IS4_S4_LPv0EEEOT_OT0_, symObjAddr: 0x4568, symBinAddr: 0x100006454, symSize: 0x34 }
  - { offsetInCU: 0xDAA4, offset: 0xDAA4, size: 0x8, addend: 0x0, symName: __ZNSt3__118__unwrap_iter_implINS_16reverse_iteratorIP8HeapDataEELb0EE8__rewrapB7v160006ES4_S4_, symObjAddr: 0x459C, symBinAddr: 0x100006488, symSize: 0x2C }
  - { offsetInCU: 0xDAD1, offset: 0xDAD1, size: 0x8, addend: 0x0, symName: __ZNSt3__114__split_bufferI8HeapDataRNS_9allocatorIS1_EEED2Ev, symObjAddr: 0x45C8, symBinAddr: 0x1000064B4, symSize: 0x8C }
  - { offsetInCU: 0xDAFC, offset: 0xDAFC, size: 0x8, addend: 0x0, symName: __ZNSt3__114__split_bufferI8HeapDataRNS_9allocatorIS1_EEE5clearB7v160006Ev, symObjAddr: 0x4654, symBinAddr: 0x100006540, symSize: 0x28 }
  - { offsetInCU: 0xDB21, offset: 0xDB21, size: 0x8, addend: 0x0, symName: __ZNKSt3__114__split_bufferI8HeapDataRNS_9allocatorIS1_EEE8capacityB7v160006Ev, symObjAddr: 0x467C, symBinAddr: 0x100006568, symSize: 0x40 }
  - { offsetInCU: 0xDB46, offset: 0xDB46, size: 0x8, addend: 0x0, symName: __ZNSt3__114__split_bufferI8HeapDataRNS_9allocatorIS1_EEE17__destruct_at_endB7v160006EPS1_, symObjAddr: 0x46BC, symBinAddr: 0x1000065A8, symSize: 0x2C }
  - { offsetInCU: 0xDB78, offset: 0xDB78, size: 0x8, addend: 0x0, symName: __ZNSt3__114__split_bufferI8HeapDataRNS_9allocatorIS1_EEE17__destruct_at_endB7v160006EPS1_NS_17integral_constantIbLb0EEE, symObjAddr: 0x46E8, symBinAddr: 0x1000065D4, symSize: 0x80 }
  - { offsetInCU: 0xDBB7, offset: 0xDBB7, size: 0x8, addend: 0x0, symName: __ZNKSt3__114__split_bufferI8HeapDataRNS_9allocatorIS1_EEE9__end_capB7v160006Ev, symObjAddr: 0x4768, symBinAddr: 0x100006654, symSize: 0x28 }
  - { offsetInCU: 0xDBDC, offset: 0xDBDC, size: 0x8, addend: 0x0, symName: __ZNKSt3__117__compressed_pairIP8HeapDataRNS_9allocatorIS1_EEE5firstB7v160006Ev, symObjAddr: 0x4790, symBinAddr: 0x10000667C, symSize: 0x24 }
  - { offsetInCU: 0xDC0B, offset: 0xDC0B, size: 0x8, addend: 0x0, symName: '__ZZ4mainENK3$_2clER8HeapDataS1_', symObjAddr: 0x4970, symBinAddr: 0x10000685C, symSize: 0x4C }
  - { offsetInCU: 0xDC50, offset: 0xDC50, size: 0x8, addend: 0x0, symName: __ZNSt3__111__wrap_iterIP8HeapDataEmmB7v160006Ev, symObjAddr: 0x49BC, symBinAddr: 0x1000068A8, symSize: 0x20 }
  - { offsetInCU: 0xDC7F, offset: 0xDC7F, size: 0x8, addend: 0x0, symName: '__ZZ4mainENK3$_3clER8HeapDataS1_', symObjAddr: 0x4B54, symBinAddr: 0x100006A40, symSize: 0x4C }
  - { offsetInCU: 0xDCCE, offset: 0xDCCE, size: 0x8, addend: 0x0, symName: '__ZZ4mainENK3$_4clER8HeapDataS1_', symObjAddr: 0x4F48, symBinAddr: 0x100006E34, symSize: 0x4C }
  - { offsetInCU: 0xDD1D, offset: 0xDD1D, size: 0x8, addend: 0x0, symName: '__ZZ4mainENK3$_5clER8HeapDataS1_', symObjAddr: 0x5374, symBinAddr: 0x100007260, symSize: 0x4C }
  - { offsetInCU: 0xDD62, offset: 0xDD62, size: 0x8, addend: 0x0, symName: __ZNSt3__16vectorI8HeapDataNS_9allocatorIS1_EEE17__destruct_at_endB7v160006EPS1_, symObjAddr: 0x53C0, symBinAddr: 0x1000072AC, symSize: 0x60 }
  - { offsetInCU: 0xDDA5, offset: 0xDDA5, size: 0x8, addend: 0x0, symName: __ZNSt3__16vectorI8HeapDataNS_9allocatorIS1_EEE27__invalidate_iterators_pastB7v160006EPS1_, symObjAddr: 0x5420, symBinAddr: 0x10000730C, symSize: 0x14 }
  - { offsetInCU: 0xDDDB, offset: 0xDDDB, size: 0x8, addend: 0x0, symName: __ZNKSt3__16vectorI8HeapDataNS_9allocatorIS1_EEE17__annotate_shrinkB7v160006Em, symObjAddr: 0x5434, symBinAddr: 0x100007320, symSize: 0xB4 }
  - { offsetInCU: 0xDE19, offset: 0xDE19, size: 0x8, addend: 0x0, symName: '__ZZ4mainENK3$_6clER8HeapDataS1_', symObjAddr: 0x58C8, symBinAddr: 0x1000077B4, symSize: 0x4C }
...
